target datalayout = "e-m:e-p270:32:32-p271:32:32-p272:64:64-i64:64-i128:128-f80:128-n8:16:32:64-S128"
target triple = "x86_64-pc-linux-gnu"

%struct.H5C_class_t = type { i32, ptr, i32, i32, ptr, ptr, ptr, ptr, ptr, ptr, ptr, ptr, ptr, ptr }
%struct.H5HF_t = type { ptr, ptr }

@H5HF_init_g = global i8 0, align 1
@H5_libterm_g = external global i8, align 1
@.str = private unnamed_addr constant [98 x i8] c"generated/home/dtcxzyw/WorkSpace/Projects/compilers/llvm-opt-benchmark/bench/hdf5/hdf5/src/H5HF.c\00", align 1
@__func__.H5HF_create = private unnamed_addr constant [12 x i8] c"H5HF_create\00", align 1
@H5E_HEAP_g = external global i64, align 8
@H5E_CANTINIT_g = external global i64, align 8
@.str.1 = private unnamed_addr constant [33 x i8] c"can't create fractal heap header\00", align 1
@H5E_CANTALLOC_g = external global i64, align 8
@.str.2 = private unnamed_addr constant [47 x i8] c"memory allocation failed for fractal heap info\00", align 1
@H5E_CANTPROTECT_g = external global i64, align 8
@.str.3 = private unnamed_addr constant [38 x i8] c"unable to protect fractal heap header\00", align 1
@H5E_CANTINC_g = external global i64, align 8
@.str.4 = private unnamed_addr constant [54 x i8] c"can't increment reference count on shared heap header\00", align 1
@.str.5 = private unnamed_addr constant [59 x i8] c"can't increment file reference count on shared heap header\00", align 1
@H5AC_FHEAP_HDR = external constant [1 x %struct.H5C_class_t], align 16
@H5E_CANTUNPROTECT_g = external global i64, align 8
@.str.6 = private unnamed_addr constant [38 x i8] c"unable to release fractal heap header\00", align 1
@H5E_CANTCLOSEOBJ_g = external global i64, align 8
@.str.7 = private unnamed_addr constant [29 x i8] c"unable to close fractal heap\00", align 1
@H5_H5HF_t_reg_free_list = internal global { i8, [3 x i8], i32, i32, [4 x i8], ptr, i64, ptr } { i8 0, [3 x i8] zeroinitializer, i32 0, i32 0, [4 x i8] zeroinitializer, ptr @.str.38, i64 16, ptr null }, align 8

; Function Attrs: nounwind uwtable
define ptr @H5HF_create(ptr noundef %0, ptr noundef %1) #0 {
  %3 = alloca ptr, align 8
  %4 = alloca ptr, align 8
  %5 = alloca ptr, align 8
  %6 = alloca ptr, align 8
  %7 = alloca i64, align 8
  %8 = alloca ptr, align 8
  %9 = alloca i8, align 1
  store ptr %0, ptr %3, align 8, !tbaa !13
  store ptr %1, ptr %4, align 8, !tbaa !15
  call void @llvm.lifetime.start.p0(i64 8, ptr %5) #6
  store ptr null, ptr %5, align 8, !tbaa !17
  call void @llvm.lifetime.start.p0(i64 8, ptr %6) #6
  store ptr null, ptr %6, align 8, !tbaa !19
  call void @llvm.lifetime.start.p0(i64 8, ptr %7) #6
  call void @llvm.lifetime.start.p0(i64 8, ptr %8) #6
  store ptr null, ptr %8, align 8, !tbaa !17
  call void @llvm.lifetime.start.p0(i64 1, ptr %9) #6
  store i8 0, ptr %9, align 1, !tbaa !9
  %10 = load i8, ptr @H5HF_init_g, align 1, !tbaa !9, !range !11, !noundef !12
  %11 = trunc i8 %10 to i1
  br i1 %11, label %16, label %12

12:                                               ; preds = %2
  %13 = load i8, ptr @H5_libterm_g, align 1, !tbaa !9, !range !11, !noundef !12
  %14 = trunc i8 %13 to i1
  %15 = xor i1 %14, true
  br label %16

16:                                               ; preds = %12, %2
  %17 = phi i1 [ false, %2 ], [ %15, %12 ]
  %18 = xor i1 %17, true
  %19 = xor i1 %18, true
  %20 = zext i1 %19 to i32
  %21 = sext i32 %20 to i64
  %22 = call i64 @llvm.expect.i64(i64 %21, i64 0)
  %23 = icmp ne i64 %22, 0
  br i1 %23, label %24, label %25

24:                                               ; preds = %16
  store i8 1, ptr @H5HF_init_g, align 1, !tbaa !9
  br label %25

25:                                               ; preds = %24, %16
  %26 = load i8, ptr @H5HF_init_g, align 1, !tbaa !9, !range !11, !noundef !12
  %27 = trunc i8 %26 to i1
  br i1 %27, label %32, label %28

28:                                               ; preds = %25
  %29 = load i8, ptr @H5_libterm_g, align 1, !tbaa !9, !range !11, !noundef !12
  %30 = trunc i8 %29 to i1
  %31 = xor i1 %30, true
  br label %32

32:                                               ; preds = %28, %25
  %33 = phi i1 [ true, %25 ], [ %31, %28 ]
  %34 = xor i1 %33, true
  %35 = xor i1 %34, true
  %36 = zext i1 %35 to i32
  %37 = sext i32 %36 to i64
  %38 = call i64 @llvm.expect.i64(i64 %37, i64 1)
  %39 = icmp ne i64 %38, 0
  br i1 %39, label %40, label %221

40:                                               ; preds = %32
  %41 = load ptr, ptr %3, align 8, !tbaa !13
  %42 = load ptr, ptr %4, align 8, !tbaa !15
  %43 = call i64 @H5HF__hdr_create(ptr noundef %41, ptr noundef %42)
  store i64 %43, ptr %7, align 8, !tbaa !7
  %44 = icmp eq i64 -1, %43
  br i1 %44, label %45, label %64

45:                                               ; preds = %40
  br label %46

46:                                               ; preds = %45
  br label %47

47:                                               ; preds = %46
  br label %48

48:                                               ; preds = %47
  %49 = load i64, ptr @H5E_HEAP_g, align 8, !tbaa !7
  %50 = load i64, ptr @H5E_CANTINIT_g, align 8, !tbaa !7
  %51 = call i32 (ptr, ptr, i32, i64, i64, ptr, ...) @H5E_printf_stack(ptr noundef @.str, ptr noundef @__func__.H5HF_create, i32 noundef 150, i64 noundef %49, i64 noundef %50, ptr noundef @.str.1)
  br label %52

52:                                               ; preds = %48
  br label %53

53:                                               ; preds = %52
  store i8 1, ptr %9, align 1, !tbaa !9
  %54 = load i8, ptr %9, align 1, !tbaa !9, !range !11, !noundef !12
  %55 = trunc i8 %54 to i1
  %56 = zext i1 %55 to i8
  store i8 %56, ptr %9, align 1, !tbaa !9
  br label %57

57:                                               ; preds = %53
  br label %58

58:                                               ; preds = %57
  br label %59

59:                                               ; preds = %58
  store ptr null, ptr %8, align 8, !tbaa !17
  br label %168

60:                                               ; No predecessors!
  br label %61

61:                                               ; preds = %60
  br label %62

62:                                               ; preds = %61
  br label %63

63:                                               ; preds = %62
  br label %64

64:                                               ; preds = %63, %40
  %65 = call noalias ptr @H5FL_reg_malloc(ptr noundef @H5_H5HF_t_reg_free_list)
  store ptr %65, ptr %5, align 8, !tbaa !17
  %66 = icmp eq ptr null, %65
  br i1 %66, label %67, label %86

67:                                               ; preds = %64
  br label %68

68:                                               ; preds = %67
  br label %69

69:                                               ; preds = %68
  br label %70

70:                                               ; preds = %69
  %71 = load i64, ptr @H5E_HEAP_g, align 8, !tbaa !7
  %72 = load i64, ptr @H5E_CANTALLOC_g, align 8, !tbaa !7
  %73 = call i32 (ptr, ptr, i32, i64, i64, ptr, ...) @H5E_printf_stack(ptr noundef @.str, ptr noundef @__func__.H5HF_create, i32 noundef 154, i64 noundef %71, i64 noundef %72, ptr noundef @.str.2)
  br label %74

74:                                               ; preds = %70
  br label %75

75:                                               ; preds = %74
  store i8 1, ptr %9, align 1, !tbaa !9
  %76 = load i8, ptr %9, align 1, !tbaa !9, !range !11, !noundef !12
  %77 = trunc i8 %76 to i1
  %78 = zext i1 %77 to i8
  store i8 %78, ptr %9, align 1, !tbaa !9
  br label %79

79:                                               ; preds = %75
  br label %80

80:                                               ; preds = %79
  br label %81

81:                                               ; preds = %80
  store ptr null, ptr %8, align 8, !tbaa !17
  br label %168

82:                                               ; No predecessors!
  br label %83

83:                                               ; preds = %82
  br label %84

84:                                               ; preds = %83
  br label %85

85:                                               ; preds = %84
  br label %86

86:                                               ; preds = %85, %64
  %87 = load ptr, ptr %3, align 8, !tbaa !13
  %88 = load i64, ptr %7, align 8, !tbaa !7
  %89 = call ptr @H5HF__hdr_protect(ptr noundef %87, i64 noundef %88, i32 noundef 0)
  store ptr %89, ptr %6, align 8, !tbaa !19
  %90 = icmp eq ptr null, %89
  br i1 %90, label %91, label %110

91:                                               ; preds = %86
  br label %92

92:                                               ; preds = %91
  br label %93

93:                                               ; preds = %92
  br label %94

94:                                               ; preds = %93
  %95 = load i64, ptr @H5E_HEAP_g, align 8, !tbaa !7
  %96 = load i64, ptr @H5E_CANTPROTECT_g, align 8, !tbaa !7
  %97 = call i32 (ptr, ptr, i32, i64, i64, ptr, ...) @H5E_printf_stack(ptr noundef @.str, ptr noundef @__func__.H5HF_create, i32 noundef 158, i64 noundef %95, i64 noundef %96, ptr noundef @.str.3)
  br label %98

98:                                               ; preds = %94
  br label %99

99:                                               ; preds = %98
  store i8 1, ptr %9, align 1, !tbaa !9
  %100 = load i8, ptr %9, align 1, !tbaa !9, !range !11, !noundef !12
  %101 = trunc i8 %100 to i1
  %102 = zext i1 %101 to i8
  store i8 %102, ptr %9, align 1, !tbaa !9
  br label %103

103:                                              ; preds = %99
  br label %104

104:                                              ; preds = %103
  br label %105

105:                                              ; preds = %104
  store ptr null, ptr %8, align 8, !tbaa !17
  br label %168

106:                                              ; No predecessors!
  br label %107

107:                                              ; preds = %106
  br label %108

108:                                              ; preds = %107
  br label %109

109:                                              ; preds = %108
  br label %110

110:                                              ; preds = %109, %86
  %111 = load ptr, ptr %6, align 8, !tbaa !19
  %112 = load ptr, ptr %5, align 8, !tbaa !17
  %113 = getelementptr inbounds nuw %struct.H5HF_t, ptr %112, i32 0, i32 0
  store ptr %111, ptr %113, align 8, !tbaa !21
  %114 = load ptr, ptr %5, align 8, !tbaa !17
  %115 = getelementptr inbounds nuw %struct.H5HF_t, ptr %114, i32 0, i32 0
  %116 = load ptr, ptr %115, align 8, !tbaa !21
  %117 = call i32 @H5HF__hdr_incr(ptr noundef %116)
  %118 = icmp slt i32 %117, 0
  br i1 %118, label %119, label %138

119:                                              ; preds = %110
  br label %120

120:                                              ; preds = %119
  br label %121

121:                                              ; preds = %120
  br label %122

122:                                              ; preds = %121
  %123 = load i64, ptr @H5E_HEAP_g, align 8, !tbaa !7
  %124 = load i64, ptr @H5E_CANTINC_g, align 8, !tbaa !7
  %125 = call i32 (ptr, ptr, i32, i64, i64, ptr, ...) @H5E_printf_stack(ptr noundef @.str, ptr noundef @__func__.H5HF_create, i32 noundef 163, i64 noundef %123, i64 noundef %124, ptr noundef @.str.4)
  br label %126

126:                                              ; preds = %122
  br label %127

127:                                              ; preds = %126
  store i8 1, ptr %9, align 1, !tbaa !9
  %128 = load i8, ptr %9, align 1, !tbaa !9, !range !11, !noundef !12
  %129 = trunc i8 %128 to i1
  %130 = zext i1 %129 to i8
  store i8 %130, ptr %9, align 1, !tbaa !9
  br label %131

131:                                              ; preds = %127
  br label %132

132:                                              ; preds = %131
  br label %133

133:                                              ; preds = %132
  store ptr null, ptr %8, align 8, !tbaa !17
  br label %168

134:                                              ; No predecessors!
  br label %135

135:                                              ; preds = %134
  br label %136

136:                                              ; preds = %135
  br label %137

137:                                              ; preds = %136
  br label %138

138:                                              ; preds = %137, %110
  %139 = load ptr, ptr %5, align 8, !tbaa !17
  %140 = getelementptr inbounds nuw %struct.H5HF_t, ptr %139, i32 0, i32 0
  %141 = load ptr, ptr %140, align 8, !tbaa !21
  %142 = call i32 @H5HF__hdr_fuse_incr(ptr noundef %141)
  %143 = icmp slt i32 %142, 0
  br i1 %143, label %144, label %163

144:                                              ; preds = %138
  br label %145

145:                                              ; preds = %144
  br label %146

146:                                              ; preds = %145
  br label %147

147:                                              ; preds = %146
  %148 = load i64, ptr @H5E_HEAP_g, align 8, !tbaa !7
  %149 = load i64, ptr @H5E_CANTINC_g, align 8, !tbaa !7
  %150 = call i32 (ptr, ptr, i32, i64, i64, ptr, ...) @H5E_printf_stack(ptr noundef @.str, ptr noundef @__func__.H5HF_create, i32 noundef 168, i64 noundef %148, i64 noundef %149, ptr noundef @.str.5)
  br label %151

151:                                              ; preds = %147
  br label %152

152:                                              ; preds = %151
  store i8 1, ptr %9, align 1, !tbaa !9
  %153 = load i8, ptr %9, align 1, !tbaa !9, !range !11, !noundef !12
  %154 = trunc i8 %153 to i1
  %155 = zext i1 %154 to i8
  store i8 %155, ptr %9, align 1, !tbaa !9
  br label %156

156:                                              ; preds = %152
  br label %157

157:                                              ; preds = %156
  br label %158

158:                                              ; preds = %157
  store ptr null, ptr %8, align 8, !tbaa !17
  br label %168

159:                                              ; No predecessors!
  br label %160

160:                                              ; preds = %159
  br label %161

161:                                              ; preds = %160
  br label %162

162:                                              ; preds = %161
  br label %163

163:                                              ; preds = %162, %138
  %164 = load ptr, ptr %3, align 8, !tbaa !13
  %165 = load ptr, ptr %5, align 8, !tbaa !17
  %166 = getelementptr inbounds nuw %struct.H5HF_t, ptr %165, i32 0, i32 1
  store ptr %164, ptr %166, align 8, !tbaa !23
  %167 = load ptr, ptr %5, align 8, !tbaa !17
  store ptr %167, ptr %8, align 8, !tbaa !17
  br label %168

168:                                              ; preds = %163, %158, %133, %105, %81, %59
  %169 = load ptr, ptr %6, align 8, !tbaa !19
  %170 = icmp ne ptr %169, null
  br i1 %170, label %171, label %193

171:                                              ; preds = %168
  %172 = load ptr, ptr %3, align 8, !tbaa !13
  %173 = load i64, ptr %7, align 8, !tbaa !7
  %174 = load ptr, ptr %6, align 8, !tbaa !19
  %175 = call i32 @H5AC_unprotect(ptr noundef %172, ptr noundef @H5AC_FHEAP_HDR, i64 noundef %173, ptr noundef %174, i32 noundef 0)
  %176 = icmp slt i32 %175, 0
  br i1 %176, label %177, label %193

177:                                              ; preds = %171
  br label %178

178:                                              ; preds = %177
  br label %179

179:                                              ; preds = %178
  br label %180

180:                                              ; preds = %179
  %181 = load i64, ptr @H5E_HEAP_g, align 8, !tbaa !7
  %182 = load i64, ptr @H5E_CANTUNPROTECT_g, align 8, !tbaa !7
  %183 = call i32 (ptr, ptr, i32, i64, i64, ptr, ...) @H5E_printf_stack(ptr noundef @.str, ptr noundef @__func__.H5HF_create, i32 noundef 178, i64 noundef %181, i64 noundef %182, ptr noundef @.str.6)
  br label %184

184:                                              ; preds = %180
  br label %185

185:                                              ; preds = %184
  store i8 1, ptr %9, align 1, !tbaa !9
  %186 = load i8, ptr %9, align 1, !tbaa !9, !range !11, !noundef !12
  %187 = trunc i8 %186 to i1
  %188 = zext i1 %187 to i8
  store i8 %188, ptr %9, align 1, !tbaa !9
  br label %189

189:                                              ; preds = %185
  br label %190

190:                                              ; preds = %189
  store ptr null, ptr %8, align 8, !tbaa !17
  br label %191

191:                                              ; preds = %190
  br label %192

192:                                              ; preds = %191
  br label %193

193:                                              ; preds = %192, %171, %168
  %194 = load ptr, ptr %8, align 8, !tbaa !17
  %195 = icmp ne ptr %194, null
  br i1 %195, label %220, label %196

196:                                              ; preds = %193
  %197 = load ptr, ptr %5, align 8, !tbaa !17
  %198 = icmp ne ptr %197, null
  br i1 %198, label %199, label %220

199:                                              ; preds = %196
  %200 = load ptr, ptr %5, align 8, !tbaa !17
  %201 = call i32 @H5HF_close(ptr noundef %200)
  %202 = icmp slt i32 %201, 0
  br i1 %202, label %203, label %219

203:                                              ; preds = %199
  br label %204

204:                                              ; preds = %203
  br label %205

205:                                              ; preds = %204
  br label %206

206:                                              ; preds = %205
  %207 = load i64, ptr @H5E_HEAP_g, align 8, !tbaa !7
  %208 = load i64, ptr @H5E_CANTCLOSEOBJ_g, align 8, !tbaa !7
  %209 = call i32 (ptr, ptr, i32, i64, i64, ptr, ...) @H5E_printf_stack(ptr noundef @.str, ptr noundef @__func__.H5HF_create, i32 noundef 181, i64 noundef %207, i64 noundef %208, ptr noundef @.str.7)
  br label %210

210:                                              ; preds = %206
  br label %211

211:                                              ; preds = %210
  store i8 1, ptr %9, align 1, !tbaa !9
  %212 = load i8, ptr %9, align 1, !tbaa !9, !range !11, !noundef !12
  %213 = trunc i8 %212 to i1
  %214 = zext i1 %213 to i8
  store i8 %214, ptr %9, align 1, !tbaa !9
  br label %215

215:                                              ; preds = %211
  br label %216

216:                                              ; preds = %215
  store ptr null, ptr %8, align 8, !tbaa !17
  br label %217

217:                                              ; preds = %216
  br label %218

218:                                              ; preds = %217
  br label %219

219:                                              ; preds = %218, %199
  br label %220

220:                                              ; preds = %219, %196, %193
  br label %221

221:                                              ; preds = %220, %32
  %222 = load ptr, ptr %8, align 8, !tbaa !17
  call void @llvm.lifetime.end.p0(i64 1, ptr %9) #6
  call void @llvm.lifetime.end.p0(i64 8, ptr %8) #6
  call void @llvm.lifetime.end.p0(i64 8, ptr %7) #6
  call void @llvm.lifetime.end.p0(i64 8, ptr %6) #6
  call void @llvm.lifetime.end.p0(i64 8, ptr %5) #6
  ret ptr %222
}