; Function Attrs: nounwind uwtable
define ptr @H5HF_create(ptr noundef %0, ptr noundef %1) local_unnamed_addr #2 {
  %3 = load i8, ptr @H5HF_init_g, align 1, !tbaa !3, !range !7, !noundef !8
  %4 = trunc nuw i8 %3 to i1
  %5 = load i8, ptr @H5_libterm_g, align 1, !range !7
  %6 = trunc nuw i8 %5 to i1
  %7 = select i1 %4, i1 true, i1 %6
  br i1 %7, label %8, label %.thread, !prof !9

.thread:                                          ; preds = %2
  store i8 1, ptr @H5HF_init_g, align 1, !tbaa !3
  br label %11

8:                                                ; preds = %2
  %9 = xor i1 %6, true
  %10 = select i1 %4, i1 true, i1 %9
  br i1 %10, label %11, label %.thread33.thread, !prof !10

11:                                               ; preds = %.thread, %8
  %12 = tail call i64 @H5HF__hdr_create(ptr noundef %0, ptr noundef %1) #5
  %13 = icmp eq i64 %12, -1
  br i1 %13, label %14, label %18

14:                                               ; preds = %11
  %15 = load i64, ptr @H5E_HEAP_g, align 8, !tbaa !11
  %16 = load i64, ptr @H5E_CANTINIT_g, align 8, !tbaa !11
  %17 = tail call i32 (ptr, ptr, i32, i64, i64, ptr, ...) @H5E_printf_stack(ptr noundef nonnull @.str, ptr noundef nonnull @__func__.H5HF_create, i32 noundef 150, i64 noundef %15, i64 noundef %16, ptr noundef nonnull @.str.1) #5
  br label %.thread33.thread

18:                                               ; preds = %11
  %19 = tail call noalias ptr @H5FL_reg_malloc(ptr noundef nonnull @H5_H5HF_t_reg_free_list) #5
  %20 = icmp eq ptr %19, null
  br i1 %20, label %21, label %25

21:                                               ; preds = %18
  %22 = load i64, ptr @H5E_HEAP_g, align 8, !tbaa !11
  %23 = load i64, ptr @H5E_CANTALLOC_g, align 8, !tbaa !11
  %24 = tail call i32 (ptr, ptr, i32, i64, i64, ptr, ...) @H5E_printf_stack(ptr noundef nonnull @.str, ptr noundef nonnull @__func__.H5HF_create, i32 noundef 154, i64 noundef %22, i64 noundef %23, ptr noundef nonnull @.str.2) #5
  br label %.thread33.thread

25:                                               ; preds = %18
  %26 = tail call ptr @H5HF__hdr_protect(ptr noundef %0, i64 noundef %12, i32 noundef 0) #5
  %27 = icmp eq ptr %26, null
  br i1 %27, label %28, label %32

28:                                               ; preds = %25
  %29 = load i64, ptr @H5E_HEAP_g, align 8, !tbaa !11
  %30 = load i64, ptr @H5E_CANTPROTECT_g, align 8, !tbaa !11
  %31 = tail call i32 (ptr, ptr, i32, i64, i64, ptr, ...) @H5E_printf_stack(ptr noundef nonnull @.str, ptr noundef nonnull @__func__.H5HF_create, i32 noundef 158, i64 noundef %29, i64 noundef %30, ptr noundef nonnull @.str.3) #5
  br label %.thread33.thread42

32:                                               ; preds = %25
  store ptr %26, ptr %19, align 8, !tbaa !13
  %33 = tail call i32 @H5HF__hdr_incr(ptr noundef nonnull %26) #5
  %34 = icmp slt i32 %33, 0
  br i1 %34, label %35, label %39

35:                                               ; preds = %32
  %36 = load i64, ptr @H5E_HEAP_g, align 8, !tbaa !11
  %37 = load i64, ptr @H5E_CANTINC_g, align 8, !tbaa !11
  %38 = tail call i32 (ptr, ptr, i32, i64, i64, ptr, ...) @H5E_printf_stack(ptr noundef nonnull @.str, ptr noundef nonnull @__func__.H5HF_create, i32 noundef 163, i64 noundef %36, i64 noundef %37, ptr noundef nonnull @.str.4) #5
  br label %48

39:                                               ; preds = %32
  %40 = tail call i32 @H5HF__hdr_fuse_incr(ptr noundef nonnull %26) #5
  %41 = icmp slt i32 %40, 0
  br i1 %41, label %42, label %46

42:                                               ; preds = %39
  %43 = load i64, ptr @H5E_HEAP_g, align 8, !tbaa !11
  %44 = load i64, ptr @H5E_CANTINC_g, align 8, !tbaa !11
  %45 = tail call i32 (ptr, ptr, i32, i64, i64, ptr, ...) @H5E_printf_stack(ptr noundef nonnull @.str, ptr noundef nonnull @__func__.H5HF_create, i32 noundef 168, i64 noundef %43, i64 noundef %44, ptr noundef nonnull @.str.5) #5
  br label %48

46:                                               ; preds = %39
  %47 = getelementptr inbounds nuw i8, ptr %19, i64 8
  store ptr %0, ptr %47, align 8, !tbaa !18
  br label %48

48:                                               ; preds = %35, %42, %46
  %.1 = phi ptr [ null, %35 ], [ null, %42 ], [ %19, %46 ]
  %49 = tail call i32 @H5AC_unprotect(ptr noundef %0, ptr noundef nonnull @H5AC_FHEAP_HDR, i64 noundef %12, ptr noundef nonnull %26, i32 noundef 0) #5
  %50 = icmp slt i32 %49, 0
  br i1 %50, label %51, label %.thread33

51:                                               ; preds = %48
  %52 = load i64, ptr @H5E_HEAP_g, align 8, !tbaa !11
  %53 = load i64, ptr @H5E_CANTUNPROTECT_g, align 8, !tbaa !11
  %54 = tail call i32 (ptr, ptr, i32, i64, i64, ptr, ...) @H5E_printf_stack(ptr noundef nonnull @.str, ptr noundef nonnull @__func__.H5HF_create, i32 noundef 178, i64 noundef %52, i64 noundef %53, ptr noundef nonnull @.str.6) #5
  br label %.thread33.thread42

.thread33:                                        ; preds = %48
  %55 = icmp eq ptr %.1, null
  br i1 %55, label %.thread33.thread42, label %.thread33.thread

.thread33.thread42:                               ; preds = %28, %51, %.thread33
  %56 = tail call i32 @H5HF_close(ptr noundef nonnull %19)
  %57 = icmp slt i32 %56, 0
  br i1 %57, label %58, label %.thread33.thread

58:                                               ; preds = %.thread33.thread42
  %59 = load i64, ptr @H5E_HEAP_g, align 8, !tbaa !11
  %60 = load i64, ptr @H5E_CANTCLOSEOBJ_g, align 8, !tbaa !11
  %61 = tail call i32 (ptr, ptr, i32, i64, i64, ptr, ...) @H5E_printf_stack(ptr noundef nonnull @.str, ptr noundef nonnull @__func__.H5HF_create, i32 noundef 181, i64 noundef %59, i64 noundef %60, ptr noundef nonnull @.str.7) #5
  br label %.thread33.thread

.thread33.thread:                                 ; preds = %14, %21, %.thread33, %58, %.thread33.thread42, %8
  %.0 = phi ptr [ null, %58 ], [ null, %.thread33.thread42 ], [ %.1, %.thread33 ], [ null, %8 ], [ null, %21 ], [ null, %14 ]
  ret ptr %.0
}